; Function Attrs: mustprogress nofree nounwind uwtable
define void @_ZNK3gmx18AbstractPlotModule10writeValueERKNS_17AnalysisDataValueE(ptr noundef nonnull readonly align 8 captures(none) dereferenceable(16) %0, ptr noundef nonnull readonly align 8 captures(none) dereferenceable(16) %1) local_unnamed_addr #4 align 2 {
  %3 = getelementptr inbounds nuw i8, ptr %1, i64 8
  %4 = load i64, ptr %3, align 8, !tbaa !52
  %5 = and i64 %4, 1
  %.not = icmp eq i64 %5, 0
  %6 = load float, ptr %1, align 8
  %7 = fpext float %6 to double
  %8 = select i1 %.not, double 0.000000e+00, double %7
  %9 = getelementptr inbounds nuw i8, ptr %0, i64 8
  %10 = load ptr, ptr %9, align 8, !tbaa !4
  %11 = getelementptr inbounds nuw i8, ptr %10, i64 48
  %12 = load ptr, ptr %11, align 8, !tbaa !32
  %13 = getelementptr inbounds nuw i8, ptr %10, i64 248
  %14 = load ptr, ptr %13, align 8, !tbaa !30
  %15 = tail call i32 (ptr, ptr, ...) @fprintf(ptr noundef %12, ptr noundef %14, double noundef %8) #35
  %16 = load ptr, ptr %9, align 8, !tbaa !4
  %17 = getelementptr inbounds nuw i8, ptr %16, i64 58
  %18 = load i8, ptr %17, align 2, !tbaa !54, !range !28, !noundef !29
  %19 = trunc nuw i8 %18 to i1
  br i1 %19, label %20, label %32

20:                                               ; preds = %2
  %21 = load i64, ptr %3, align 8, !tbaa !52
  %22 = and i64 %21, 1
  %.not7 = icmp eq i64 %22, 0
  %23 = getelementptr inbounds nuw i8, ptr %1, i64 4
  %24 = load float, ptr %23, align 4
  %25 = fpext float %24 to double
  %26 = select i1 %.not7, double 0.000000e+00, double %25
  %27 = getelementptr inbounds nuw i8, ptr %16, i64 48
  %28 = load ptr, ptr %27, align 8, !tbaa !32
  %29 = getelementptr inbounds nuw i8, ptr %16, i64 248
  %30 = load ptr, ptr %29, align 8, !tbaa !30
  %31 = tail call i32 (ptr, ptr, ...) @fprintf(ptr noundef %28, ptr noundef %30, double noundef %26) #35
  br label %32

32:                                               ; preds = %20, %2
  ret void
}